; Function Attrs: nounwind uwtable
define dso_local void @context_pop_defers_and_replace_ast(ptr nocapture noundef %0, ptr nocapture noundef %1) local_unnamed_addr #0 {
  %3 = alloca i32, align 4
  store i32 0, ptr %3, align 4
  %4 = getelementptr inbounds i8, ptr %0, i64 272
  %5 = load i32, ptr %4, align 8
  %6 = getelementptr inbounds i8, ptr %0, i64 252
  %7 = load i8, ptr %6, align 4
  %8 = and i8 %7, 2
  %.not16.i = icmp eq i8 %8, 0
  br i1 %.not16.i, label %9, label %context_pop_defers.exit.thread

9:                                                ; preds = %2
  %10 = getelementptr inbounds i8, ptr %0, i64 268
  %.01419.i = load i32, ptr %10, align 4
  %.not1720.i = icmp eq i32 %.01419.i, %5
  br i1 %.not1720.i, label %context_pop_defers.exit.thread, label %.lr.ph.preheader.i

.lr.ph.preheader.i:                               ; preds = %9
  %.pre23.i = load ptr, ptr @ast_arena, align 8
  br label %.lr.ph.i

.lr.ph.i:                                         ; preds = %31, %.lr.ph.preheader.i
  %11 = phi ptr [ %32, %31 ], [ %.pre23.i, %.lr.ph.preheader.i ]
  %.01422.i = phi i32 [ %.014.i, %31 ], [ %.01419.i, %.lr.ph.preheader.i ]
  %.021.i = phi ptr [ %.1.i, %31 ], [ %3, %.lr.ph.preheader.i ]
  %12 = zext i32 %.01422.i to i64
  %13 = getelementptr inbounds %struct.Ast_, ptr %11, i64 %12
  %14 = getelementptr inbounds i8, ptr %13, i64 16
  %15 = getelementptr inbounds i8, ptr %13, i64 24
  %16 = load i8, ptr %15, align 8
  %17 = and i8 %16, 2
  %.not18.i = icmp eq i8 %17, 0
  br i1 %.not18.i, label %18, label %31

18:                                               ; preds = %.lr.ph.i
  %19 = getelementptr inbounds i8, ptr %13, i64 20
  %20 = load i32, ptr %19, align 4
  %21 = zext i32 %20 to i64
  %22 = getelementptr inbounds %struct.Ast_, ptr %11, i64 %21
  %23 = tail call ptr @copy_ast_defer(ptr noundef %22) #10
  %24 = load ptr, ptr @ast_arena, align 8
  %25 = ptrtoint ptr %23 to i64
  %26 = ptrtoint ptr %24 to i64
  %27 = sub i64 %25, %26
  %28 = sdiv exact i64 %27, 48
  %29 = trunc i64 %28 to i32
  store i32 %29, ptr %.021.i, align 4
  %30 = getelementptr inbounds i8, ptr %23, i64 8
  %.pre.i = load ptr, ptr @ast_arena, align 8
  br label %31

31:                                               ; preds = %18, %.lr.ph.i
  %32 = phi ptr [ %11, %.lr.ph.i ], [ %.pre.i, %18 ]
  %.1.i = phi ptr [ %.021.i, %.lr.ph.i ], [ %30, %18 ]
  %.014.i = load i32, ptr %14, align 4
  %.not17.i = icmp eq i32 %.014.i, %5
  br i1 %.not17.i, label %context_pop_defers.exit, label %.lr.ph.i, !llvm.loop !9

context_pop_defers.exit.thread:                   ; preds = %2, %9
  %33 = getelementptr inbounds i8, ptr %0, i64 268
  store i32 %5, ptr %33, align 4
  br label %46

context_pop_defers.exit:                          ; preds = %31
  %.0..0..0..pre = load i32, ptr %3, align 4
  %34 = getelementptr inbounds i8, ptr %0, i64 268
  store i32 %5, ptr %34, align 4
  %.not = icmp eq i32 %.0..0..0..pre, 0
  br i1 %.not, label %46, label %35

35:                                               ; preds = %context_pop_defers.exit
  %36 = tail call noundef ptr @vmem_alloc(ptr noundef nonnull @ast_arena, i64 noundef 48) #10
  tail call void @llvm.memcpy.p0.p0.i64(ptr noundef nonnull align 8 dereferenceable(48) %36, ptr noundef nonnull align 8 dereferenceable(48) %1, i64 48, i1 false)
  %37 = getelementptr inbounds i8, ptr %1, i64 12
  store i8 6, ptr %37, align 4
  %38 = load ptr, ptr @ast_arena, align 8
  %39 = ptrtoint ptr %36 to i64
  %40 = ptrtoint ptr %38 to i64
  %41 = sub i64 %39, %40
  %42 = sdiv exact i64 %41, 48
  %43 = trunc i64 %42 to i32
  %44 = getelementptr inbounds i8, ptr %1, i64 16
  store i32 %43, ptr %44, align 8
  %45 = getelementptr inbounds i8, ptr %36, i64 8
  store i32 %.0..0..0..pre, ptr %45, align 8
  br label %46

46:                                               ; preds = %context_pop_defers.exit.thread, %context_pop_defers.exit, %35
  ret void
}